(cnumpy.core.multiarray
_reconstruct
p0
(cpandas.core.series
Series
p1
(I0
tp2
S'b'
p3
tp4
Rp5
((I1
(I3
tp6
cnumpy
dtype
p7
(S'f8'
p8
I0
I1
tp9
Rp10
(I3
S'<'
p11
NNNI-1
I-1
I0
tp12
bI00
S'\x00\x00\xa0\x00\x00\x00\x80\xbb\x0b\x03\xadz\xea\x93\xf1?\x00\x00\x00\x00\x00\x00\xc49'
p13
tp14
(g0
(cpandas.core.index
Index
p15
(I0
tp16
g3
tp17
Rp18
((I1
(I3
tp19
g7
(S'O8'
p20
I0
I1
tp21
Rp22
(I3
S'|'
p23
NNNI-1
I-1
I63
tp24
bI00
(lp25
S'Intercept'
p26
aS'C(hours, Treatment)[T.18]'
p27
aS'C(hours, Treatment)[T.19]'
p28
atp29
(Ntp30
tp31
bNtp32
tp33
bg0
(g1
(I0
tp34
g3
tp35
Rp36
((I1
(I3
tp37
g10
I00
S'\x00\x00\x00\x00\x00\x80A\xc0\x00\x00\x00\x00\x00\x00\xdc\xbc\x00\x00\x00\x00\x00\x00\xe2\xbc'
p38
tp39
(g0
(g15
(I0
tp40
g3
tp41
Rp42
((I1
(I3
tp43
g22
I00
(lp44
g26
aS'C(hours, Treatment)[T.18]'
p45
aS'C(hours, Treatment)[T.19]'
p46
atp47
(Ntp48
tp49
bNtp50
tp51
btp52
.