(dp0
I0
(lp1
(dp2
S'prob_empty'
p3
F0.0
sS'lon'
p4
F-77.0512
sS'station_id'
p5
I1
sS'lat'
p6
F38.8561
sS'prob_full'
p7
F0.0
sS'max_slots'
p8
I11
sS'expected_num_bikes'
p9
F3.0
sS'current_bikes'
p10
I3
sS'name'
p11
S'20th & Bell St'
p12
sa(dp13
g3
F0.0
sg4
F-77.05332
sg5
I2
sg6
F38.85725
sg7
F0.0
sg8
I9
sg9
F6.0
sg10
I6
sg11
S'18th & Eads St.'
p14
sa(dp15
g3
F0.0
sg4
F-77.0492
sg5
I3
sg6
F38.8564
sg7
F0.0
sg8
I13
sg9
F7.0
sg10
I7
sg11
S'20th & Crystal Dr'
p16
sa(dp17
g3
F0.0
sg4
F-77.050276
sg5
I4
sg6
F38.860244
sg7
F0.0
sg8
I10
sg9
F8.0
sg10
I8
sg11
S'15th & Crystal Dr'
p18
sa(dp19
g3
F0.0
sg4
F-77.0574
sg5
I5
sg6
F38.8573
sg7
F0.0
sg8
I11
sg9
F4.0
sg10
I4
sg11
S'18th & Hayes St'
p20
sa(dp21
g3
F0.0
sg4
F-77.0603
sg5
I6
sg6
F38.8604
sg7
F0.0
sg8
I17
sg9
F9.0
sg10
I9
sg11
S'15th & Hayes St'
p22
sa(dp23
g3
F0.0
sg4
F-77.0633
sg5
I7
sg6
F38.8637
sg7
F0.0
sg8
I10
sg9
F6.0
sg10
I6
sg11
S'S Joyce & Army Navy Dr'
p24
sa(dp25
g3
F0.0
sg4
F-77.0511
sg5
I8
sg6
F38.8573
sg7
F0.0
sg8
I19
sg9
F8.0
sg10
I8
sg11
S'Crystal City Metro / 18th & Bell St'
p26
sa(dp27
g3
F0.0
sg4
F-77.0528
sg5
I9
sg6
F38.8629
sg7
F0.0
sg8
I11
sg9
F5.0
sg10
I5
sg11
S'12th & Army Navy Dr'
p28
sa(dp29
g3
F0.0
sg4
F-77.051516
sg5
I10
sg6
F38.848441
sg7
F0.0
sg8
I11
sg9
F1.0
sg10
I1
sg11
S'27th & Crystal Dr'
p30
sa(dp31
g3
F0.0
sg4
F-77.0502
sg5
I11
sg6
F38.8426
sg7
F0.0
sg8
I11
sg9
F8.0
sg10
I8
sg11
S'S Glebe & Potomac Ave'
p32
sa(dp33
g3
F0.0
sg4
F-77.0498
sg5
I12
sg6
F38.8533
sg7
F0.0
sg8
I16
sg9
F7.0
sg10
I7
sg11
S'23rd & Crystal Dr'
p34
sa(dp35
g3
F0.0
sg4
F-77.0498
sg5
I13
sg6
F38.8518
sg7
F0.0
sg8
I11
sg9
F3.0
sg10
I3
sg11
S'26th & Crystal Dr'
p36
sa(dp37
g3
F0.0
sg4
F-77.0429
sg5
I14
sg6
F38.9003
sg7
F0.0
sg8
I15
sg9
F14.0
sg10
I14
sg11
S'19th St & Pennsylvania Ave NW'
p38
sa(dp39
g3
F0.0
sg4
F-77.0321
sg5
I15
sg6
F38.9176
sg7
F0.0
sg8
I27
sg9
F4.0
sg10
I4
sg11
S'14th & V St NW'
p40
sa(dp41
g3
F0.0
sg4
F-77.027822
sg5
I16
sg6
F38.929464
sg7
F0.0
sg8
I27
sg9
F0.0
sg10
I0
sg11
S'11th & Kenyon St NW'
p42
sa(dp43
g3
F0.0
sg4
F-77.036536
sg5
I17
sg6
F38.926088
sg7
F0.0
sg8
I33
sg9
F0.0
sg10
I0
sg11
S'16th & Harvard St NW'
p44
sa(dp45
g3
F0.0
sg4
F-77.042581
sg5
I18
sg6
F38.922925
sg7
F0.0
sg8
I15
sg9
F1.0
sg10
I1
sg11
S'Adams Mill & Columbia Rd NW'
p46
sa(dp47
g3
F0.0
sg4
F-77.0322
sg5
I19
sg6
F38.9268
sg7
F0.0
sg8
I19
sg9
F0.0
sg10
I0
sg11
S'14th & Harvard St NW'
p48
sa(dp49
g3
F0.0
sg4
F-77.0501
sg5
I20
sg6
F38.9236
sg7
F0.0
sg8
I23
sg9
F2.0
sg10
I2
sg11
S'Calvert St & Woodley Pl NW'
p50
sa(dp51
g3
F0.0
sg4
F-77.0388
sg5
I21
sg6
F38.9319
sg7
F0.0
sg8
I19
sg9
F0.0
sg10
I0
sg11
S'Lamont & Mt Pleasant NW'
p52
sa(dp53
g3
F0.0
sg4
F-77.0178
sg5
I22
sg6
F38.8767
sg7
F0.0
sg8
I19
sg9
F1.0
sg10
I1
sg11
S'4th & M St SW'
p54
sa(dp55
g3
F0.0
sg4
F-77.034438
sg5
I23
sg6
F38.90985
sg7
F0.0
sg8
I19
sg9
F4.0
sg10
I4
sg11
S'15th & P St NW'
p56
sa(dp57
g3
F0.0
sg4
F-77.031681
sg5
I24
sg6
F38.912682
sg7
F0.0
sg8
I15
sg9
F2.0
sg10
I2
sg11
S'14th & R St NW'
p58
sa(dp59
g3
F0.0
sg4
F-77.0323
sg5
I25
sg6
F38.9086
sg7
F0.0
sg8
I23
sg9
F2.0
sg10
I2
sg11
S'14th & Rhode Island Ave NW'
p60
sa(dp61
g3
F0.0
sg4
F-77.045
sg5
I26
sg6
F38.8963
sg7
F0.0
sg8
I15
sg9
F6.0
sg10
I6
sg11
S'20th & E St NW'
p62
sa(dp63
g3
F0.0
sg4
F-77.047
sg5
I27
sg6
F38.9008
sg7
F0.0
sg8
I35
sg9
F24.0
sg10
I24
sg11
S'21st & I St NW'
p64
sa(dp65
g3
F0.0
sg4
F-77.024649
sg5
I28
sg6
F38.936043
sg7
F0.0
sg8
I13
sg9
F4.0
sg10
I4
sg11
S'Georgia & New Hampshire Ave NW'
p66
sa(dp67
g3
F0.0
sg4
F-77.0328
sg5
I29
sg6
F38.9375
sg7
F0.0
sg8
I11
sg9
F6.0
sg10
I6
sg11
S'14th St & Spring Rd NW'
p68
sa(dp69
g3
F0.0
sg4
F-76.9955
sg5
I30
sg6
F38.9346
sg7
F0.0
sg8
I11
sg9
F6.0
sg10
I6
sg11
S'John McCormack Dr & Michigan Ave NE'
p70
sa(dp71
g3
F0.0
sg4
F-77.019027
sg5
I31
sg6
F38.90304
sg7
F0.0
sg8
I19
sg9
F1.0
sg10
I1
sg11
S'5th & K St NW'
p72
sa(dp73
g3
F0.0
sg4
F-76.9769
sg5
I32
sg6
F38.8896
sg7
F0.0
sg8
I15
sg9
F7.0
sg10
I7
sg11
S'19th & East Capitol St SE'
p74
sa(dp75
g3
F0.0
sg4
F-77.0315
sg5
I33
sg6
F38.9308
sg7
F0.0
sg8
I19
sg9
F11.0
sg10
I11
sg11
S'Park Rd & Holmead Pl NW'
p76
sa(dp77
g3
F0.0
sg4
F-76.9672
sg5
I34
sg6
F38.8601
sg7
F0.0
sg8
I11
sg9
F2.0
sg10
I2
sg11
S'Good Hope & Naylor Rd SE'
p78
sa(dp79
g3
F0.0
sg4
F-77.057979
sg5
I35
sg6
F38.934267
sg7
F0.0
sg8
I11
sg9
F1.0
sg10
I1
sg11
S'Connecticut Ave & Newark St NW / Cleveland Park'
p80
sa(dp81
g3
F0.0
sg4
F-76.9607
sg5
I36
sg6
F38.878
sg7
F0.0
sg8
I11
sg9
F6.0
sg10
I6
sg11
S'Randle Circle & Minnesota Ave SE'
p82
sa(dp83
g3
F0.0
sg4
F-76.947446
sg5
I37
sg6
F38.897063
sg7
F0.0
sg8
I11
sg9
F7.0
sg10
I7
sg11
S'Minnesota Ave Metro/DOES'
p84
sa(dp85
g3
F0.0
sg4
F-76.9422
sg5
I38
sg6
F38.9016
sg7
F0.0
sg8
I0
sg9
F0.0
sg10
I0
sg11
S'Nannie Helen Burroughs & Minnesota Ave NE'
p86
sa(dp87
g3
F0.0
sg4
F-76.9949
sg5
I39
sg6
F38.8624
sg7
F0.0
sg8
I11
sg9
F8.0
sg10
I8
sg11
S'Anacostia Metro'
p88
sa(dp89
g3
F0.0
sg4
F-76.988039
sg5
I40
sg6
F38.867373
sg7
F0.0
sg8
I11
sg9
F9.0
sg10
I9
sg11
S'Good Hope Rd & MLK Ave SE'
p90
sa(dp91
g3
F0.0
sg4
F-77.0436
sg5
I41
sg6
F38.8952
sg7
F0.0
sg8
I11
sg9
F2.0
sg10
I2
sg11
S'19th & E Street NW'
p92
sa(dp93
g3
F0.0
sg4
F-77.000624
sg5
I42
sg6
F38.919488
sg7
F0.0
sg8
I11
sg9
F4.0
sg10
I4
sg11
S'4th St & Rhode Island Ave NE'
p94
sa(dp95
g3
F0.0
sg4
F-77.0259
sg5
I43
sg6
F38.9172
sg7
F0.0
sg8
I14
sg9
F2.0
sg10
I2
sg11
S'10th & U St NW'
p96
sa(dp97
g3
F0.0
sg4
F-77.0222
sg5
I44
sg6
F38.9249
sg7
F0.0
sg8
I11
sg9
F1.0
sg10
I1
sg11
S'Georgia Ave and Fairmont St NW'
p98
sa(dp99
g3
F0.0
sg4
F-77.0057
sg5
I45
sg6
F38.8743
sg7
F0.0
sg8
I23
sg9
F0.0
sg10
I0
sg11
S'1st & N St  SE'
p100
sa(dp101
g3
F0.0
sg4
F-77.0446
sg5
I46
sg6
F38.9154
sg7
F0.0
sg8
I15
sg9
F3.0
sg10
I3
sg11
S'20th St & Florida Ave NW'
p102
sa(dp103
g3
F0.0
sg4
F-77.0222
sg5
I47
sg6
F38.9155
sg7
F0.0
sg8
I14
sg9
F1.0
sg10
I1
sg11
S'7th & T St NW'
p104
sa(dp105
g3
F0.0
sg4
F-77.053535
sg5
I48
sg6
F38.853613
sg7
F0.0
sg8
I11
sg9
F5.0
sg10
I5
sg11
S'23rd & Eads St'
p106
sa(dp107
g3
F0.0
sg4
F-77.0037
sg5
I49
sg6
F38.8763
sg7
F0.0
sg8
I15
sg9
F11.0
sg10
I11
sg11
S'M St & New Jersey Ave SE'
p108
sa(dp109
g3
F0.0
sg4
F-77.0444
sg5
I51
sg6
F38.9101
sg7
F0.0
sg8
I41
sg9
F18.0
sg10
I18
sg11
S'Massachusetts Ave & Dupont Circle NW'
p110
sa(dp111
g3
F0.0
sg4
F-77.0056
sg5
I52
sg6
F38.9057
sg7
F0.0
sg8
I15
sg9
F3.0
sg10
I3
sg11
S'1st & M St NE'
p112
sa(dp113
g3
F0.0
sg4
F-77.0471
sg5
I53
sg6
F38.9054
sg7
F0.0
sg8
I19
sg9
F11.0
sg10
I11
sg11
S'21st & M St NW'
p114
sa(dp115
g3
F0.0
sg4
F-77.03863
sg5
I54
sg6
F38.90276
sg7
F0.0
sg8
I17
sg9
F12.0
sg10
I12
sg11
S'17th & K St NW'
p116
sa(dp117
g3
F0.0
sg4
F-77.016
sg5
I55
sg6
F38.9003
sg7
F0.0
sg8
I15
sg9
F3.0
sg10
I3
sg11
S'4th St & Massachusetts Ave NW'
p118
sa(dp119
g3
F0.0
sg4
F-77.0023
sg5
I56
sg6
F38.8851
sg7
F0.0
sg8
I11
sg9
F4.0
sg10
I4
sg11
S'3rd & D St SE'
p120
sa(dp121
g3
F0.0
sg4
F-76.9862
sg5
I57
sg6
F38.8803
sg7
F0.0
sg8
I15
sg9
F3.0
sg10
I3
sg11
S'Potomac & Pennsylvania Ave SE'
p122
sa(dp123
g3
F0.0
sg4
F-76.9861
sg5
I58
sg6
F38.884
sg7
F0.0
sg8
I15
sg9
F3.0
sg10
I3
sg11
S'14th & D St SE'
p124
sa(dp125
g3
F0.0
sg4
F-77.0387
sg5
I59
sg6
F38.9121
sg7
F0.0
sg8
I19
sg9
F3.0
sg10
I3
sg11
S'17th & Corcoran St NW'
p126
sa(dp127
g3
F0.0
sg4
F-77.063896
sg5
I60
sg6
F38.944551
sg7
F0.0
sg8
I15
sg9
F12.0
sg10
I12
sg11
S'Van Ness Metro / UDC'
p128
sa(dp129
g3
F0.0
sg4
F-77.0135
sg5
I61
sg6
F38.9126
sg7
F0.0
sg8
I15
sg9
F1.0
sg10
I1
sg11
S'Florida Ave & R St NW'
p130
sa(dp131
g3
F0.0
sg4
F-76.9953
sg5
I62
sg6
F38.8792
sg7
F0.0
sg8
I11
sg9
F7.0
sg10
I7
sg11
S'8th & Eye St SE / Barracks Row'
p132
sa(dp133
g3
F0.0
sg4
F-77.087171
sg5
I63
sg6
F38.938736
sg7
F0.0
sg8
I15
sg9
F11.0
sg10
I11
sg11
S'Ward Circle / American University'
p134
sa(dp135
g3
F0.0
sg4
F-77.074647
sg5
I64
sg6
F38.934751
sg7
F0.0
sg8
I15
sg9
F1.0
sg10
I1
sg11
S'Idaho Ave & Newark St NW [on 2nd District patio]'
p136
sa(dp137
g3
F0.0
sg4
F-77.032818
sg5
I65
sg6
F38.947774
sg7
F0.0
sg8
I10
sg9
F3.0
sg10
I3
sg11
S'14th St Heights / 14th & Crittenden St NW'
p138
sa(dp139
g3
F0.0
sg4
F-76.9784
sg5
I66
sg6
F38.865784
sg7
F0.0
sg8
I11
sg9
F3.0
sg10
I3
sg11
S'Anacostia Library'
p140
sa(dp141
g3
F0.0
sg4
F-76.971015
sg5
I67
sg6
F38.873057
sg7
F0.0
sg8
I11
sg9
F5.0
sg10
I5
sg11
S'Pennsylvania & Minnesota Ave SE'
p142
sa(dp143
g3
F0.0
sg4
F-76.996806
sg5
I68
sg6
F38.886952
sg7
F0.0
sg8
I15
sg9
F9.0
sg10
I9
sg11
S'Eastern Market / 7th & North Carolina Ave SE'
p144
sa(dp145
g3
F0.0
sg4
F-77.032005
sg5
I69
sg6
F38.899641
sg7
F0.0
sg8
I17
sg9
F12.0
sg10
I12
sg11
S'McPherson Square / 14th & H St NW'
p146
sa(dp147
g3
F0.0
sg4
F-76.947974
sg5
I70
sg6
F38.894
sg7
F0.0
sg8
I11
sg9
F9.0
sg10
I9
sg11
S'Benning Branch Library'
p148
sa(dp149
g3
F0.0
sg4
F-77.028226
sg5
I71
sg6
F38.887237
sg7
F0.0
sg8
I39
sg9
F23.0
sg10
I23
sg11
S'USDA / 12th & Independence Ave SW'
p150
sa(dp151
g3
F0.0
sg4
F-77.059219
sg5
I72
sg6
F38.9022212
sg7
F0.0
sg8
I18
sg9
F10.0
sg10
I10
sg11
S'Georgetown Harbor / 30th St NW'
p152
sa(dp153
g3
F0.0
sg4
F-76.991016
sg5
I73
sg6
F38.933668
sg7
F0.0
sg8
I11
sg9
F2.0
sg10
I2
sg11
S'12th & Newton St NE'
p154
sa(dp155
g3
F0.0
sg4
F-77.046587
sg5
I74
sg6
F38.894919
sg7
F0.0
sg8
I15
sg9
F4.0
sg10
I4
sg11
S'US Dept of State / Virginia Ave & 21st St NW'
p156
sa(dp157
g3
F0.0
sg4
F-77.022241
sg5
I75
sg6
F38.886266
sg7
F0.0
sg8
I15
sg9
F12.0
sg10
I12
sg11
S"L'Enfant Plaza / 7th & C St SW"
p158
sa(dp159
g3
F0.0
sg4
F-77.026013
sg5
I76
sg6
F38.893028
sg7
F0.0
sg8
I29
sg9
F27.0
sg10
I27
sg11
S'10th St & Constitution Ave NW'
p160
sa(dp161
g3
F0.0
sg4
F-77.054845
sg5
I77
sg6
F38.895184
sg7
F0.0
sg8
I11
sg9
F5.0
sg10
I5
sg11
S'Kennedy Center'
p162
sa(dp163
g3
F0.0
sg4
F-76.995397
sg5
I78
sg6
F38.884
sg7
F0.0
sg8
I19
sg9
F18.0
sg10
I18
sg11
S'Eastern Market Metro / Pennsylvania Ave & 7th St SE'
p164
sa(dp165
g3
F0.0
sg4
F-77.041606
sg5
I79
sg6
F38.904742
sg7
F0.0
sg8
I19
sg9
F19.0
sg10
I19
sg11
S'18th & M St NW'
p166
sa(dp167
g3
F0.0
sg4
F-77.079382
sg5
I80
sg6
F38.947607
sg7
F0.0
sg8
I14
sg9
F9.0
sg10
I9
sg11
S'Tenleytown / Wisconsin Ave & Albemarle St NW'
p168
sa(dp169
g3
F0.0
sg4
F-76.9882
sg5
I81
sg6
F38.9003
sg7
F0.0
sg8
I27
sg9
F4.0
sg10
I4
sg11
S'13th & H St NE'
p170
sa(dp171
g3
F0.0
sg4
F-77.019347
sg5
I82
sg6
F38.897222
sg7
F0.0
sg8
I31
sg9
F13.0
sg10
I13
sg11
S'5th & F St NW'
p172
sa(dp173
g3
F0.0
sg4
F-77.0337
sg5
I83
sg6
F38.8991
sg7
F0.0
sg8
I15
sg9
F8.0
sg10
I8
sg11
S'New York Ave & 15th St NW'
p174
sa(dp175
g3
F0.0
sg4
F-77.022264
sg5
I84
sg6
F38.90572
sg7
F0.0
sg8
I18
sg9
F0.0
sg10
I0
sg11
S'Convention Center / 7th & M St NW'
p176
sa(dp177
g3
F0.0
sg4
F-77.043358
sg5
I85
sg6
F38.927872
sg7
F0.0
sg8
I15
sg9
F5.0
sg10
I5
sg11
S'Harvard St & Adams Mill Rd NW'
p178
sa(dp179
g3
F0.0
sg4
F-77.043648
sg5
I86
sg6
F38.903407
sg7
F0.0
sg8
I15
sg9
F4.0
sg10
I4
sg11
S'19th & L St NW'
p180
sa(dp181
g3
F0.0
sg4
F-77.06269
sg5
I87
sg6
F38.90375
sg7
F0.0
sg8
I22
sg9
F16.0
sg10
I16
sg11
S'C & O Canal & Wisconsin Ave NW'
p182
sa(dp183
g3
F0.0
sg4
F-77.024016
sg5
I88
sg6
F38.878925
sg7
F0.0
sg8
I19
sg9
F10.0
sg10
I10
sg11
S'7th & Water St SW / SW Waterfront'
p184
sa(dp185
g3
F0.0
sg4
F-76.997114
sg5
I89
sg6
F38.894758
sg7
F0.0
sg8
I21
sg9
F1.0
sg10
I1
sg11
S'D St & Maryland Ave NE'
p186
sa(dp187
g3
F0.0
sg4
F-77.0682
sg5
I90
sg6
F38.916442
sg7
F0.0
sg8
I11
sg9
F0.0
sg10
I0
sg11
S'34th St & Wisconsin Ave NW'
p188
sa(dp189
g3
F0.0
sg4
F-77.029822
sg5
I91
sg6
F38.900283
sg7
F0.0
sg8
I22
sg9
F12.0
sg10
I12
sg11
S'13th St & New York Ave NW'
p190
sa(dp191
g3
F0.0
sg4
F-77.023086
sg5
I92
sg6
F38.8997
sg7
F0.0
sg8
I33
sg9
F16.0
sg10
I16
sg11
S'8th & H St NW'
p192
sa(dp193
g3
F0.0
sg4
F-76.992889
sg5
I93
sg6
F38.932514
sg7
F0.0
sg8
I11
sg9
F1.0
sg10
I1
sg11
S'10th & Monroe St NE'
p194
sa(dp195
g3
F0.0
sg4
F-77.00495
sg5
I94
sg6
F38.910972
sg7
F0.0
sg8
I11
sg9
F2.0
sg10
I2
sg11
S'Eckington Pl & Q St NE'
p196
sa(dp197
g3
F0.0
sg4
F-76.99831
sg5
I95
sg6
F38.900384
sg7
F0.0
sg8
I23
sg9
F3.0
sg10
I3
sg11
S'6th & H St NE'
p198
sa(dp199
g3
F0.0
sg4
F-77.002166
sg5
I96
sg6
F38.90002
sg7
F0.0
sg8
I19
sg9
F15.0
sg10
I15
sg11
S'3rd & H St NE'
p200
sa(dp201
g3
F0.0
sg4
F-76.982872
sg5
I97
sg6
F38.900413
sg7
F0.0
sg8
I15
sg9
F2.0
sg10
I2
sg11
S'Bladensburg Rd & Benning Rd NE'
p202
sa(dp203
g3
F0.0
sg4
F-77.000349
sg5
I98
sg6
F38.889955
sg7
F0.0
sg8
I11
sg9
F8.0
sg10
I8
sg11
S'4th & East Capitol St NE'
p204
sa(dp205
g3
F0.0
sg4
F-76.988355
sg5
I99
sg6
F38.890461
sg7
F0.0
sg8
I25
sg9
F3.0
sg10
I3
sg11
S'Lincoln Park / 13th & East Capitol St NE '
p206
sa(dp207
g3
F0.0
sg4
F-76.9599
sg5
I100
sg6
F38.8692
sg7
F0.0
sg8
I10
sg9
F4.0
sg10
I4
sg11
S'Branch & Pennsylvania Ave SE'
p208
sa(dp209
g3
F0.0
sg4
F-76.987633
sg5
I101
sg6
F38.894832
sg7
F0.0
sg8
I31
sg9
F1.0
sg10
I1
sg11
S'13th & D St NE'
p210
sa(dp211
g3
F0.0
sg4
F-77.03818
sg5
I102
sg6
F38.91554
sg7
F0.0
sg8
I23
sg9
F5.0
sg10
I5
sg11
S'New Hampshire Ave & T St NW'
p212
sa(dp213
g3
F0.0
sg4
F-77.027869
sg5
I103
sg6
F38.898364
sg7
F0.0
sg8
I31
sg9
F15.0
sg10
I15
sg11
S'Metro Center / 12th & G St NW'
p214
sa(dp215
g3
F0.0
sg4
F-77.031617
sg5
I104
sg6
F38.894514
sg7
F0.0
sg8
I25
sg9
F19.0
sg10
I19
sg11
S'14th & D St NW / Ronald Reagan Building'
p216
sa(dp217
g3
F0.0
sg4
F-77.022322
sg5
I105
sg6
F38.897324
sg7
F0.0
sg8
I18
sg9
F9.0
sg10
I9
sg11
S'7th & F St NW / National Portrait Gallery'
p218
sa(dp219
g3
F0.0
sg4
F-77.038322
sg5
I106
sg6
F38.902061
sg7
F0.0
sg8
I27
sg9
F20.0
sg10
I20
sg11
S'17th & K St NW / Farragut Square'
p220
sa(dp221
g3
F0.0
sg4
F-77.04478
sg5
I107
sg6
F38.908905
sg7
F0.0
sg8
I19
sg9
F18.0
sg10
I18
sg11
S'20th & O St NW / Dupont South'
p222
sa(dp223
g3
F0.0
sg4
F-77.016106
sg5
I108
sg6
F38.895344
sg7
F0.0
sg8
I15
sg9
F10.0
sg10
I10
sg11
S'4th & D St NW / Judiciary Square'
p224
sa(dp225
g3
F0.0
sg4
F-77.0436
sg5
I109
sg6
F38.8923
sg7
F0.0
sg8
I23
sg9
F9.0
sg10
I9
sg11
S'19th St & Constitution Ave NW'
p226
sa(dp227
g3
F0.0
sg4
F-77.071652
sg5
I110
sg6
F38.90774
sg7
F0.0
sg8
I23
sg9
F18.0
sg10
I18
sg11
S'37th & O St NW / Georgetown University'
p228
sa(dp229
g3
F0.0
sg4
F-76.991383
sg5
I111
sg6
F38.899983
sg7
F0.0
sg8
I18
sg9
F7.0
sg10
I7
sg11
S'11th & H St NE'
p230
sa(dp231
g3
F0.0
sg4
F-77.053485
sg5
I112
sg6
F38.903827
sg7
F0.0
sg8
I14
sg9
F6.0
sg10
I6
sg11
S'25th St & Pennsylvania Ave NW'
p232
sa(dp233
g3
F0.0
sg4
F-77.00493
sg5
I113
sg6
F38.89696
sg7
F0.0
sg8
I31
sg9
F25.0
sg10
I25
sg11
S'Columbus Circle / Union Station'
p234
sa(dp235
g3
F0.0
sg4
F-77.009888
sg5
I114
sg6
F38.897446
sg7
F0.0
sg8
I23
sg9
F14.0
sg10
I14
sg11
S'North Capitol St & F St NW'
p236
sa(dp237
g3
F0.0
sg4
F-77.027137
sg5
I115
sg6
F38.905607
sg7
F0.0
sg8
I18
sg9
F0.0
sg10
I0
sg11
S'11th & M St NW'
p238
sa(dp239
g3
F0.0
sg4
F-77.070334
sg5
I116
sg6
F38.922581
sg7
F0.0
sg8
I15
sg9
F8.0
sg10
I8
sg11
S'36th & Calvert St NW / Glover Park'
p240
sa(dp241
g3
F0.0
sg4
F-77.031823
sg5
I117
sg6
F38.898069
sg7
F0.0
sg8
I23
sg9
F21.0
sg10
I21
sg11
S'14th & G St NW'
p242
sa(dp243
g3
F0.0
sg4
F-77.050537
sg5
I118
sg6
F38.844015
sg7
F0.0
sg8
I23
sg9
F10.0
sg10
I10
sg11
S'Potomac Ave & 35th St S'
p244
sa(dp245
g3
F0.0
sg4
F-77.04657
sg5
I124
sg6
F38.88412
sg7
F0.0
sg8
I23
sg9
F2.0
sg10
I2
sg11
S'Ohio Dr & West Basin Dr SW / MLK & FDR Memorials'
p246
sa(dp247
g3
F0.0
sg4
F-77.026975
sg5
I125
sg6
F38.897857
sg7
F0.0
sg8
I15
sg9
F13.0
sg10
I13
sg11
S'11th & F St NW'
p248
sa(dp249
g3
F0.0
sg4
F-77.049882
sg5
I126
sg6
F38.896104
sg7
F0.0
sg8
I19
sg9
F13.0
sg10
I13
sg11
S'23rd & E St NW '
p250
sa(dp251
g3
F0.0
sg4
F-77.070993
sg5
I127
sg6
F38.897315
sg7
F0.0
sg8
I18
sg9
F6.0
sg10
I6
sg11
S'Lynn & 19th St North'
p252
sa(dp253
g3
F0.0
sg4
F-77.072305
sg5
I128
sg6
F38.8946
sg7
F0.0
sg8
I15
sg9
F7.0
sg10
I7
sg11
S'Rosslyn Metro / Wilson Blvd & Ft Myer Dr'
p254
sa(dp255
g3
F0.0
sg4
F-77.076701
sg5
I129
sg6
F38.893648
sg7
F0.0
sg8
I11
sg9
F3.0
sg10
I3
sg11
S'Clarendon Blvd & Pierce St'
p256
sa(dp257
g3
F0.0
sg4
F-77.0846
sg5
I130
sg6
F38.891696
sg7
F0.0
sg8
I15
sg9
F9.0
sg10
I9
sg11
S'Court House Metro / Wilson Blvd & N Uhle St'
p258
sa(dp259
g3
F0.0
sg4
F-77.079375
sg5
I131
sg6
F38.892164
sg7
F0.0
sg8
I11
sg9
F2.0
sg10
I2
sg11
S'N Rhodes & 16th St N'
p260
sa(dp261
g3
F0.0
sg4
F-76.952103
sg5
I132
sg6
F38.86559
sg7
F0.0
sg8
I15
sg9
F4.0
sg10
I4
sg11
S'Fairfax Village'
p262
sa(dp263
g3
F0.0
sg4
F-77.046567
sg5
I133
sg6
F38.892459
sg7
F0.0
sg8
I15
sg9
F2.0
sg10
I2
sg11
S'21st St & Constitution Ave NW'
p264
sa(dp265
g3
F0.0
sg4
F-77.0925
sg5
I134
sg6
F38.889
sg7
F0.0
sg8
I15
sg9
F7.0
sg10
I7
sg11
S'Wilson Blvd & N Edgewood St'
p266
sa(dp267
g3
F0.0
sg4
F-77.04368
sg5
I135
sg6
F38.920669
sg7
F0.0
sg8
I19
sg9
F5.0
sg10
I5
sg11
S'Columbia Rd & Belmont St NW'
p268
sa(dp269
g3
F0.0
sg4
F-77.038785
sg5
I136
sg6
F38.906602
sg7
F0.0
sg8
I23
sg9
F6.0
sg10
I6
sg11
S'17th & Rhode Island Ave NW'
p270
sa(dp271
g3
F0.0
sg4
F-77.0325
sg5
I137
sg6
F38.9059
sg7
F0.0
sg8
I33
sg9
F0.0
sg10
I0
sg11
S'Thomas Circle'
p272
sa(dp273
g3
F0.0
sg4
F-77.0889
sg5
I138
sg6
F38.8904
sg7
F0.0
sg8
I11
sg9
F5.0
sg10
I5
sg11
S'Wilson Blvd & Franklin Rd'
p274
sa(dp275
g3
F0.0
sg4
F-77.09308
sg5
I139
sg6
F38.8881
sg7
F0.0
sg8
I14
sg9
F9.0
sg10
I9
sg11
S'Clarendon Blvd & N Fillmore St'
p276
sa(dp277
g3
F0.0
sg4
F-77.094875
sg5
I140
sg6
F38.88786
sg7
F0.0
sg8
I17
sg9
F6.0
sg10
I6
sg11
S'Clarendon Metro / Wilson Blvd & N Highland St'
p278
sa(dp279
g3
F0.0
sg4
F-77.041539
sg5
I141
sg6
F38.89968
sg7
F0.0
sg8
I15
sg9
F4.0
sg10
I4
sg11
S'18th St & Pennsylvania Ave NW'
p280
sa(dp281
g3
F0.0
sg4
F-77.018939
sg5
I142
sg6
F38.887299
sg7
F0.0
sg8
I39
sg9
F24.0
sg10
I24
sg11
S'Maryland & Independence Ave SW'
p282
sa(dp283
g3
F0.0
sg4
F-77.017445
sg5
I143
sg6
F38.88412
sg7
F0.0
sg8
I17
sg9
F0.0
sg10
I0
sg11
S'4th & E St SW'
p284
sa(dp285
g3
F0.0
sg4
F-77.001828
sg5
I144
sg6
F38.881185
sg7
F0.0
sg8
I19
sg9
F5.0
sg10
I5
sg11
S'3rd & G St SE'
p286
sa(dp287
g3
F0.0
sg4
F-77.022155
sg5
I145
sg6
F38.912719
sg7
F0.0
sg8
I15
sg9
F0.0
sg10
I0
sg11
S'7th & R St NW / Shaw Library'
p288
sa(dp289
g3
F0.0
sg4
F-77.0251
sg5
I146
sg6
F38.9418
sg7
F0.0
sg8
I15
sg9
F7.0
sg10
I7
sg11
S'9th & Upshur St NW'
p290
sa(dp291
g3
F0.0
sg4
F-77.012289
sg5
I147
sg6
F38.915417
sg7
F0.0
sg8
I15
sg9
F5.0
sg10
I5
sg11
S'1st & Rhode Island Ave NW'
p292
sa(dp293
g3
F0.0
sg4
F-77.02344
sg5
I148
sg6
F38.928156
sg7
F0.0
sg8
I19
sg9
F2.0
sg10
I2
sg11
S'Columbia Rd & Georgia Ave NW'
p294
sa(dp295
g3
F0.0
sg4
F-77.04062
sg5
I149
sg6
F38.917761
sg7
F0.0
sg8
I19
sg9
F4.0
sg10
I4
sg11
S'California St & Florida Ave NW'
p296
sa(dp297
g3
F0.0
sg4
F-76.93723
sg5
I150
sg6
F38.889935
sg7
F0.0
sg8
I19
sg9
F6.0
sg10
I6
sg11
S'Benning Rd & East Capitol St NE / Benning Rd Metro'
p298
sa(dp299
g3
F0.0
sg4
F-77.055599
sg5
I151
sg6
F38.930282
sg7
F0.0
sg8
I15
sg9
F5.0
sg10
I5
sg11
S'3000 Connecticut Ave NW / National Zoo'
p300
sa(dp301
g3
F0.0
sg4
F-76.96012
sg5
I152
sg6
F38.896544
sg7
F0.0
sg8
I15
sg9
F7.0
sg10
I7
sg11
S'Anacostia Ave & Benning Rd NE / River Terrace '
p302
sa(dp303
g3
F0.0
sg4
F-77.056887
sg5
I153
sg6
F38.905126
sg7
F0.0
sg8
I18
sg9
F15.0
sg10
I15
sg11
S'M St & Pennsylvania Ave NW'
p304
sa(dp305
g3
F0.0
sg4
F-76.983569
sg5
I154
sg6
F38.88732
sg7
F0.0
sg8
I15
sg9
F0.0
sg10
I0
sg11
S'15th St & Massachusetts Ave SE'
p306
sa(dp307
g3
F0.0
sg4
F-76.987823
sg5
I155
sg6
F38.844711
sg7
F0.0
sg8
I15
sg9
F3.0
sg10
I3
sg11
S'Congress Heights Metro'
p308
sa(dp309
g3
F0.0
sg4
F-77.107735
sg5
I156
sg6
F38.876393
sg7
F0.0
sg8
I11
sg9
F4.0
sg10
I4
sg11
S'N Quincy St & Glebe Rd'
p310
sa(dp311
g3
F0.0
sg4
F-77.10396
sg5
I157
sg6
F38.8815
sg7
F0.0
sg8
I11
sg9
F6.0
sg10
I6
sg11
S'Wilson Blvd & N Oakland St'
p312
sa(dp313
g3
F0.0
sg4
F-77.086502
sg5
I158
sg6
F38.896923
sg7
F0.0
sg8
I15
sg9
F7.0
sg10
I7
sg11
S'N Veitch  & 20th St N'
p314
sa(dp315
g3
F0.0
sg4
F-77.02674
sg5
I159
sg6
F38.90268
sg7
F0.0
sg8
I18
sg9
F3.0
sg10
I3
sg11
S'11th & K St NW'
p316
sa(dp317
g3
F0.0
sg4
F-77.097745
sg5
I160
sg6
F38.885801
sg7
F0.0
sg8
I11
sg9
F6.0
sg10
I6
sg11
S'Fairfax Dr & Wilson Blvd'
p318
sa(dp319
g3
F0.0
sg4
F-77.078107
sg5
I161
sg6
F38.896015
sg7
F0.0
sg8
I11
sg9
F8.0
sg10
I8
sg11
S'Key Blvd & N Quinn St'
p320
sa(dp321
g3
F0.0
sg4
F-77.006004
sg5
I162
sg6
F38.87861
sg7
F0.0
sg8
I15
sg9
F5.0
sg10
I5
sg11
S'1st & K St SE'
p322
sa(dp323
g3
F0.0
sg4
F-77.077271
sg5
I163
sg6
F38.922649
sg7
F0.0
sg8
I19
sg9
F2.0
sg10
I2
sg11
S'39th & Calvert St NW / Stoddert'
p324
sa(dp325
g3
F0.0
sg4
F-77.012457
sg5
I164
sg6
F38.928743
sg7
F0.0
sg8
I15
sg9
F3.0
sg10
I3
sg11
S'1st & Washington Hospital Center NW'
p326
sa(dp327
g3
F0.0
sg4
F-77.103148
sg5
I165
sg6
F38.882788
sg7
F0.0
sg8
I19
sg9
F12.0
sg10
I12
sg11
S'Virginia Square Metro / N Monroe St & 9th St N'
p328
sa(dp329
g3
F0.0
sg4
F-77.10783
sg5
I166
sg6
F38.88397
sg7
F0.0
sg8
I11
sg9
F7.0
sg10
I7
sg11
S'Central Library / N Quincy St & 10th St N'
p330
sa(dp331
g3
F0.0
sg4
F-77.093485
sg5
I167
sg6
F38.884734
sg7
F0.0
sg8
I15
sg9
F1.0
sg10
I1
sg11
S'Washington Blvd & 10th St N'
p332
sa(dp333
g3
F0.0
sg4
F-77.032429
sg5
I168
sg6
F38.888553
sg7
F0.0
sg8
I23
sg9
F3.0
sg10
I3
sg11
S'Jefferson Dr & 14th St SW'
p334
sa(dp335
g3
F0.0
sg4
F-77.02858
sg5
I169
sg6
F38.888767
sg7
F0.0
sg8
I23
sg9
F13.0
sg10
I13
sg11
S'Smithsonian / Jefferson Dr & 12th St SW'
p336
sa(dp337
g3
F0.0
sg4
F-77.1207
sg5
I170
sg6
F38.87887
sg7
F0.0
sg8
I15
sg9
F7.0
sg10
I7
sg11
S'George Mason Dr & Wilson Blvd'
p338
sa(dp339
g3
F0.0
sg4
F-77.01994
sg5
I171
sg6
F38.894573
sg7
F0.0
sg8
I18
sg9
F15.0
sg10
I15
sg11
S'6th St & Indiana Ave NW'
p340
sa(dp341
g3
F0.0
sg4
F-77.086045
sg5
I172
sg6
F38.893241
sg7
F0.0
sg8
I11
sg9
F6.0
sg10
I6
sg11
S'N Veitch & Key Blvd'
p342
sa(dp343
g3
F0.0
sg4
F-77.089006
sg5
I173
sg6
F38.89593
sg7
F0.0
sg8
I15
sg9
F2.0
sg10
I2
sg11
S'N Adams St & Lee Hwy'
p344
sa(dp345
g3
F0.0
sg4
F-77.08095
sg5
I174
sg6
F38.89054
sg7
F0.0
sg8
I11
sg9
F3.0
sg10
I3
sg11
S'15th & N Scott St'
p346
sa(dp347
g3
F0.0
sg4
F-77.091129
sg5
I175
sg6
F38.880834
sg7
F0.0
sg8
I11
sg9
F5.0
sg10
I5
sg11
S'Washington Blvd & 7th St N'
p348
sa(dp349
g3
F0.0
sg4
F-77.111768
sg5
I176
sg6
F38.881044
sg7
F0.0
sg8
I19
sg9
F7.0
sg10
I7
sg11
S'Ballston Metro / N Stuart & 9th St N'
p350
sa(dp351
g3
F0.0
sg4
F-77.109366
sg5
I177
sg6
F38.882629
sg7
F0.0
sg8
I11
sg9
F0.0
sg10
I0
sg11
S'N Randolph St & Fairfax Dr'
p352
sa(dp353
g3
F0.0
sg4
F-77.037413
sg5
I178
sg6
F38.879819
sg7
F0.0
sg8
I23
sg9
F13.0
sg10
I13
sg11
S'Jefferson Memorial'
p354
sa(dp355
g3
F0.0
sg4
F-76.985238
sg5
I179
sg6
F38.866611
sg7
F0.0
sg8
I15
sg9
F9.0
sg10
I9
sg11
S'Good Hope Rd & 14th St SE'
p356
sa(dp357
g3
F0.0
sg4
F-77.116817
sg5
I180
sg6
F38.883921
sg7
F0.0
sg8
I11
sg9
F7.0
sg10
I7
sg11
S'Glebe Rd & 11th St N'
p358
sa(dp359
g3
F0.0
sg4
F-77.107673
sg5
I181
sg6
F38.880151
sg7
F0.0
sg8
I11
sg9
F5.0
sg10
I5
sg11
S'N Quincy St & Wilson Blvd'
p360
sa(dp361
g3
F0.0
sg4
F-77.10108
sg5
I182
sg6
F38.884616
sg7
F0.0
sg8
I11
sg9
F8.0
sg10
I8
sg11
S'Fairfax Dr & Kenmore St'
p362
sa(dp363
g3
F0.0
sg4
F-76.9941
sg5
I183
sg6
F38.90509
sg7
F0.0
sg8
I19
sg9
F12.0
sg10
I12
sg11
S'Gallaudet / 8th St & Florida Ave NE'
p364
sa(dp365
g3
F0.0
sg4
F-77.044789
sg5
I185
sg6
F38.903584
sg7
F0.0
sg8
I19
sg9
F13.0
sg10
I13
sg11
S'20th & L St NW'
p366
sa(dp367
g3
F0.0
sg4
F-77.0284
sg5
I186
sg6
F38.903819
sg7
F0.0
sg8
I19
sg9
F1.0
sg10
I1
sg11
S'12th & L St NW'
p368
sa(dp369
g3
F0.0
sg4
F-77.046564
sg5
I187
sg6
F38.901539
sg7
F0.0
sg8
I19
sg9
F19.0
sg10
I19
sg11
S'21st St & Pennsylvania Ave NW'
p370
sa(dp371
g3
F0.0
sg4
F-77.04337
sg5
I188
sg6
F38.902204
sg7
F0.0
sg8
I22
sg9
F15.0
sg10
I15
sg11
S'19th & K St NW'
p372
sa(dp373
g3
F0.0
sg4
F-77.040363
sg5
I189
sg6
F38.803124
sg7
F0.0
sg8
I19
sg9
F8.0
sg10
I8
sg11
S'Prince St & Union St'
p374
sa(dp375
g3
F0.0
sg4
F-77.043363
sg5
I190
sg6
F38.804718
sg7
F0.0
sg8
I15
sg9
F11.0
sg10
I11
sg11
S'Market Square / King St & Royal St'
p376
sa(dp377
g3
F0.0
sg4
F-77.044664
sg5
I191
sg6
F38.810743
sg7
F0.0
sg8
I14
sg9
F8.0
sg10
I8
sg11
S'Saint Asaph St & Pendleton  St'
p378
sa(dp379
g3
F0.0
sg4
F-77.049883
sg5
I192
sg6
F38.805317
sg7
F0.0
sg8
I15
sg9
F7.0
sg10
I7
sg11
S'King St & Patrick St'
p380
sa(dp381
g3
F0.0
sg4
F-77.03353
sg5
I193
sg6
F38.902
sg7
F0.0
sg8
I19
sg9
F3.0
sg10
I3
sg11
S'15th & K St NW'
p382
sa(dp383
g3
F0.0
sg4
F-77.05293
sg5
I194
sg6
F38.805648
sg7
F0.0
sg8
I15
sg9
F10.0
sg10
I10
sg11
S'Commerce St & Fayette St'
p384
sa(dp385
g3
F0.0
sg4
F-77.050276
sg5
I195
sg6
F38.811456
sg7
F0.0
sg8
I17
sg9
F9.0
sg10
I9
sg11
S'Henry St & Pendleton St'
p386
sa(dp387
g3
F0.0
sg4
F-77.052808
sg5
I196
sg6
F38.814577
sg7
F0.0
sg8
I19
sg9
F7.0
sg10
I7
sg11
S'Braddock Rd Metro'
p388
sa(dp389
g3
F0.0
sg4
F-77.06072
sg5
I197
sg6
F38.805767
sg7
F0.0
sg8
I19
sg9
F4.0
sg10
I4
sg11
S'King St Metro'
p390
sa(dp391
g3
F0.0
sg4
F-77.05152
sg5
I198
sg6
F38.9066
sg7
F0.0
sg8
I15
sg9
F15.0
sg10
I15
sg11
S'24th & N St NW'
p392
sa(dp393
g3
F0.0
sg4
F-77.026064
sg5
I199
sg6
F38.895914
sg7
F0.0
sg8
I15
sg9
F15.0
sg10
I15
sg11
S'10th & E St NW'
p394
sa(dp395
g3
F0.0
sg4
F-77.048911
sg5
I200
sg6
F38.90088
sg7
F0.0
sg8
I14
sg9
F12.0
sg10
I12
sg11
S'22nd & I St NW / Foggy Bottom'
p396
sa(dp397
g3
F0.0
sg4
F-77.113905
sg5
I201
sg6
F38.883669
sg7
F0.0
sg8
I11
sg9
F2.0
sg10
I2
sg11
S'Utah St & 11th St N '
p398
sa(dp399
g3
F0.0
sg4
F-77.08777
sg5
I202
sg6
F38.884961
sg7
F0.0
sg8
I11
sg9
F7.0
sg10
I7
sg11
S'Barton St & 10th St N'
p400
sa(dp401
g3
F0.0
sg4
F-77.077294
sg5
I203
sg6
F38.889365
sg7
F0.0
sg8
I11
sg9
F1.0
sg10
I1
sg11
S'Arlington Blvd & N Queen St'
p402
sa(dp403
g3
F0.0
sg4
F-77.049426
sg5
I204
sg6
F38.888251
sg7
F0.0
sg8
I25
sg9
F7.0
sg10
I7
sg11
S'Lincoln Memorial'
p404
sa(dp405
g3
F0.0
sg4
F-77.045128
sg5
I206
sg6
F38.894722
sg7
F0.0
sg8
I15
sg9
F8.0
sg10
I8
sg11
S'20th St & Virginia Ave NW'
p406
sa(dp407
g3
F0.0
sg4
F-77.018677
sg5
I207
sg6
F38.90093
sg7
F0.0
sg8
I19
sg9
F1.0
sg10
I1
sg11
S'5th St & Massachusetts Ave NW'
p408
sa(dp409
g3
F0.0
sg4
F-77.077078
sg5
I208
sg6
F38.943837
sg7
F0.0
sg8
I15
sg9
F3.0
sg10
I3
sg11
S'39th & Veazey St NW'
p410
sa(dp411
g3
F0.0
sg4
F-77.082426
sg5
I209
sg6
F38.954812
sg7
F0.0
sg8
I15
sg9
F8.0
sg10
I8
sg11
S'Fessenden St & Wisconsin Ave NW'
p412
sa(dp413
g3
F0.0
sg4
F-77.003041
sg5
I210
sg6
F38.905707
sg7
F0.0
sg8
I23
sg9
F7.0
sg10
I7
sg11
S'M St & Delaware Ave NE'
p414
sa(dp415
g3
F0.0
sg4
F-77.080319
sg5
I211
sg6
F38.863833
sg7
F0.0
sg8
I15
sg9
F7.0
sg10
I7
sg11
S'Columbia Pike & S Courthouse Rd'
p416
sa(dp417
g3
F0.0
sg4
F-77.086733
sg5
I212
sg6
F38.857803
sg7
F0.0
sg8
I11
sg9
F6.0
sg10
I6
sg11
S'Walter Reed Community Center / Walter Reed Dr & 16th St S'
p418
sa(dp419
g3
F0.0
sg4
F-77.069275
sg5
I213
sg6
F38.846222
sg7
F0.0
sg8
I15
sg9
F6.0
sg10
I6
sg11
S'28th St S & S Meade St'
p420
sa(dp421
g3
F0.0
sg4
F-77.041571
sg5
I214
sg6
F38.918809
sg7
F0.0
sg8
I23
sg9
F0.0
sg10
I0
sg11
S'18th St & Wyoming Ave NW'
p422
sa(dp423
g3
F0.0
sg4
F-77.019815
sg5
I215
sg6
F38.956595
sg7
F0.0
sg8
I14
sg9
F9.0
sg10
I9
sg11
S'5th & Kennedy St NW'
p424
sa(dp425
g3
F0.0
sg4
F-77.027333
sg5
I216
sg6
F38.949662
sg7
F0.0
sg8
I19
sg9
F3.0
sg10
I3
sg11
S'Georgia Ave & Emerson St NW'
p426
sa(dp427
g3
F0.0
sg4
F-77.032652
sg5
I217
sg6
F38.942016
sg7
F0.0
sg8
I18
sg9
F3.0
sg10
I3
sg11
S'14th & Upshur St NW'
p428
sa(dp429
g3
F0.0
sg4
F-77.032947
sg5
I218
sg6
F38.956432
sg7
F0.0
sg8
I19
sg9
F6.0
sg10
I6
sg11
S'14th St & Colorado Ave NW'
p430
sa(dp431
g3
F0.0
sg4
F-77.075104
sg5
I219
sg6
F38.847977
sg7
F0.0
sg8
I11
sg9
F5.0
sg10
I5
sg11
S'S Troy St & 26th St S'
p432
sa(dp433
g3
F0.0
sg4
F-77.085931
sg5
I220
sg6
F38.8444
sg7
F0.0
sg8
I11
sg9
F6.0
sg10
I6
sg11
S'S Four Mile Run Dr & S Shirlington Rd'
p434
sa(dp435
g3
F0.0
sg4
F-77.09586
sg5
I221
sg6
F38.860789
sg7
F0.0
sg8
I11
sg9
F5.0
sg10
I5
sg11
S'S Oakland St & Columbia Pike'
p436
sa(dp437
g3
F0.0
sg4
F-77.094295
sg5
I222
sg6
F38.835213
sg7
F0.0
sg8
I10
sg9
F7.0
sg10
I7
sg11
S'S Abingdon St & 36th St S'
p438
sa(dp439
g3
F0.0
sg4
F-77.089555
sg5
I223
sg6
F38.84232
sg7
F0.0
sg8
I15
sg9
F8.0
sg10
I8
sg11
S'S Arlington Mill Dr & Campbell Ave'
p440
sa(dp441
g3
F0.0
sg4
F-77.084918
sg5
I224
sg6
F38.848454
sg7
F0.0
sg8
I11
sg9
F4.0
sg10
I4
sg11
S'S Kenmore & 24th St S'
p442
sa(dp443
g3
F0.0
sg4
F-77.065131
sg5
I225
sg6
F38.947175
sg7
F0.0
sg8
I19
sg9
F0.0
sg10
I0
sg11
S'Connecticut Ave & Yuma St NW'
p444
sa(dp445
g3
F0.0
sg4
F-77.063586
sg5
I226
sg6
F38.90849
sg7
F0.0
sg8
I18
sg9
F9.0
sg10
I9
sg11
S'Wisconsin Ave & O St NW'
p446
sa(dp447
g3
F0.0
sg4
F-77.100555
sg5
I227
sg6
F38.854691
sg7
F0.0
sg8
I11
sg9
F7.0
sg10
I7
sg11
S'S George Mason Dr & 13th St S'
p448
sa(dp449
g3
F0.0
sg4
F-77.069956
sg5
I228
sg6
F38.955016
sg7
F0.0
sg8
I23
sg9
F2.0
sg10
I2
sg11
S'Connecticut & Nebraska Ave NW'
p450
sa(dp451
g3
F0.0
sg4
F-77.038359
sg5
I229
sg6
F38.908142
sg7
F0.0
sg8
I19
sg9
F5.0
sg10
I5
sg11
S'17th St & Massachusetts Ave NW'
p452
sa(dp453
g3
F0.0
sg4
F-77.0352
sg5
I230
sg6
F38.92333
sg7
F0.0
sg8
I15
sg9
F0.0
sg10
I0
sg11
S'15th & Euclid St  NW'
p454
sa(dp455
g3
F0.0
sg4
F-76.995193
sg5
I231
sg6
F38.889988
sg7
F0.0
sg8
I11
sg9
F5.0
sg10
I5
sg11
S'8th & East Capitol St NE'
p456
sa(dp457
g3
F0.0
sg4
F-77.017669
sg5
I232
sg6
F38.912659
sg7
F0.0
sg8
I15
sg9
F6.0
sg10
I6
sg11
S'New Jersey Ave & R St NW'
p458
sa(dp459
g3
F0.0
sg4
F-76.983326
sg5
I233
sg6
F38.889908
sg7
F0.0
sg8
I11
sg9
F4.0
sg10
I4
sg11
S'15th & East Capitol St NE'
p460
sa(dp461
g3
F0.0
sg4
F-76.994749
sg5
I234
sg6
F38.897274
sg7
F0.0
sg8
I15
sg9
F7.0
sg10
I7
sg11
S'8th & F St NE'
p462
sa(dp463
g3
F0.0
sg4
F-76.978924
sg5
I235
sg6
F38.927095
sg7
F0.0
sg8
I15
sg9
F8.0
sg10
I8
sg11
S'18th St & Rhode Island Ave NE'
p464
sa(dp465
g3
F0.0
sg4
F-76.983575
sg5
I236
sg6
F38.897195
sg7
F0.0
sg8
I19
sg9
F6.0
sg10
I6
sg11
S'15th & F St NE'
p466
sa(dp467
g3
F0.0
sg4
F-76.990955
sg5
I237
sg6
F38.928644
sg7
F0.0
sg8
I15
sg9
F5.0
sg10
I5
sg11
S'12th & Irving St NE'
p468
sa(dp469
g3
F0.0
sg4
F-76.957461
sg5
I238
sg6
F38.884085
sg7
F0.0
sg8
I10
sg9
F4.0
sg10
I4
sg11
S'34th St & Minnesota Ave SE'
p470
sa(dp471
g3
F0.0
sg4
F-76.999388
sg5
I239
sg6
F38.843222
sg7
F0.0
sg8
I11
sg9
F1.0
sg10
I1
sg11
S'Alabama & MLK Ave SE'
p472
sa(dp473
g3
F0.0
sg4
F-76.990037
sg5
I240
sg6
F38.863897
sg7
F0.0
sg8
I11
sg9
F9.0
sg10
I9
sg11
S'Pleasant St & MLK Ave SE'
p474
sa(dp475
g3
F0.0
sg4
F-76.987211
sg5
I241
sg6
F38.903732
sg7
F0.0
sg8
I15
sg9
F5.0
sg10
I5
sg11
S'Neal St & Trinidad Ave NE'
p476
sa(dp477
g3
F0.0
sg4
F-77.029779
sg5
I242
sg6
F38.916794
sg7
F0.0
sg8
I23
sg9
F0.0
sg10
I0
sg11
S'13th & U St NW'
p478
sa(dp479
g3
F0.0
sg4
F-77.105022
sg5
I243
sg6
F38.852248
sg7
F0.0
sg8
I11
sg9
F4.0
sg10
I4
sg11
S'S George Mason Dr & Four Mile Run'
p480
sa(dp481
g3
F0.0
sg4
F-77.087323
sg5
I244
sg6
F38.834108
sg7
F0.0
sg8
I15
sg9
F10.0
sg10
I10
sg11
S'S Stafford & 34th St S'
p482
sa(dp483
g3
F0.0
sg4
F-77.08596
sg5
I245
sg6
F38.880705
sg7
F0.0
sg8
I11
sg9
F7.0
sg10
I7
sg11
S'N Pershing Dr & Wayne St'
p484
sa(dp485
g3
F0.0
sg4
F-77.072315
sg5
I246
sg6
F38.867262
sg7
F0.0
sg8
I11
sg9
F5.0
sg10
I5
sg11
S'Columbia Pike & S Orme St'
p486
sa(dp487
g3
F0.0
sg4
F-77.001955
sg5
I247
sg6
F38.887378
sg7
F0.0
sg8
I15
sg9
F9.0
sg10
I9
sg11
S'3rd St & Pennsylvania Ave SE'
p488
sa(dp489
g3
F0.0
sg4
F-77.02324
sg5
I248
sg6
F38.894851
sg7
F0.0
sg8
I15
sg9
F6.0
sg10
I6
sg11
S'8th & D St NW'
p490
sa(dp491
g3
F0.0
sg4
F-77.01597
sg5
I249
sg6
F38.917622
sg7
F0.0
sg8
I15
sg9
F5.0
sg10
I5
sg11
S'3rd & Elm St NW'
p492
sa(dp493
g3
F0.0
sg4
F-77.004746
sg5
I250
sg6
F38.918155
sg7
F0.0
sg8
I19
sg9
F7.0
sg10
I7
sg11
S'Rhode Island Ave & V St NE'
p494
sa(dp495
g3
F0.0
sg4
F-77.013917
sg5
I251
sg6
F38.892275
sg7
F0.0
sg8
I27
sg9
F10.0
sg10
I10
sg11
S'Constitution Ave & 2nd St NW/DOL'
p496
sa(dp497
g3
F0.0
sg4
F-77.01397
sg5
I252
sg6
F38.88731
sg7
F0.0
sg8
I25
sg9
F20.0
sg10
I20
sg11
S'Washington & Independence Ave SW/HHS'
p498
sa(dp499
g3
F0.0
sg4
F-77.026154
sg5
I253
sg6
F38.887397
sg7
F0.0
sg8
I15
sg9
F13.0
sg10
I13
sg11
S"Independence Ave & L'Enfant Plaza SW/DOE"
p500
sa(dp501
g3
F0.0
sg4
F-76.997194
sg5
I254
sg6
F38.927497
sg7
F0.0
sg8
I15
sg9
F10.0
sg10
I10
sg11
S'Hamlin & 7th St NE'
p502
sas.